target datalayout = "e-m:e-p270:32:32-p271:32:32-p272:64:64-i64:64-i128:128-f80:128-n8:16:32:64-S128"
target triple = "x86_64-pc-linux-gnu"

; Function Attrs: mustprogress nounwind uwtable
define linkonce_odr hidden noundef ptr @_ZN5clang6detail19IgnoreExprNodesImplEPNS_4ExprE(ptr noundef %0) #0 comdat {
  %2 = alloca ptr, align 8
  store ptr %0, ptr %2, align 8
  %3 = load ptr, ptr %2, align 8
  ret ptr %3
}

; Function Attrs: mustprogress nounwind uwtable
define linkonce_odr noundef ptr @_ZN5clang6detail19IgnoreExprNodesImplIRFPNS_4ExprES3_EJEEES3_S3_OT_DpOT0_(ptr noundef %0, ptr noundef nonnull %1) #0 comdat {
  %3 = alloca ptr, align 8
  %4 = alloca ptr, align 8
  store ptr %0, ptr %3, align 8
  store ptr %1, ptr %4, align 8
  %5 = load ptr, ptr %4, align 8
  %6 = load ptr, ptr %3, align 8
  %7 = call noundef ptr %5(ptr noundef %6)
  %8 = call noundef ptr @_ZN5clang6detail19IgnoreExprNodesImplEPNS_4ExprE(ptr noundef %7)
  ret ptr %8
}

; Function Attrs: mustprogress nounwind uwtable
define linkonce_odr noundef ptr @_ZN5clang15IgnoreExprNodesIJRFPNS_4ExprES2_EEEES2_S2_DpOT_(ptr noundef %0, ptr noundef nonnull %1) #0 comdat {
  %3 = alloca ptr, align 8
  %4 = alloca ptr, align 8
  %5 = alloca ptr, align 8
  store ptr %0, ptr %3, align 8
  store ptr %1, ptr %4, align 8
  store ptr null, ptr %5, align 8
  br label %6

6:                                                ; preds = %10, %2
  %7 = load ptr, ptr %3, align 8
  %8 = load ptr, ptr %5, align 8
  %9 = icmp ne ptr %7, %8
  br i1 %9, label %10, label %15

10:                                               ; preds = %6
  %11 = load ptr, ptr %3, align 8
  store ptr %11, ptr %5, align 8
  %12 = load ptr, ptr %3, align 8
  %13 = load ptr, ptr %4, align 8
  %14 = call noundef ptr @_ZN5clang6detail19IgnoreExprNodesImplIRFPNS_4ExprES3_EJEEES3_S3_OT_DpOT0_(ptr noundef %12, ptr noundef nonnull %13)
  store ptr %14, ptr %3, align 8
  br label %6, !llvm.loop !30

15:                                               ; preds = %6
  %16 = load ptr, ptr %3, align 8
  ret ptr %16
}

; Function Attrs: mustprogress nounwind willreturn memory(read) uwtable
define dso_local noundef ptr @_ZN5clang4Expr23IgnoreImplicitAsWrittenEv(ptr noundef nonnull align 8 dereferenceable(16) %0) #4 align 2 {
  %2 = alloca ptr, align 8
  store ptr %0, ptr %2, align 8
  %3 = load ptr, ptr %2, align 8
  %4 = call noundef ptr @_ZN5clang15IgnoreExprNodesIJRFPNS_4ExprES2_EEEES2_S2_DpOT_(ptr noundef %3, ptr noundef nonnull @_ZN5clang33IgnoreImplicitAsWrittenSingleStepEPNS_4ExprE)
  ret ptr %4
}