; Function Attrs: mustprogress nofree nounwind willreturn memory(read) uwtable
define dso_local noundef ptr @_ZN5clang4Expr23IgnoreImplicitAsWrittenEv(ptr noundef nonnull readonly align 8 dereferenceable(16) %0) local_unnamed_addr #5 align 2 {
  br label %.lr.ph.i

.lr.ph.i:                                         ; preds = %1, %_ZN5clang33IgnoreImplicitAsWrittenSingleStepEPNS_4ExprE.exit
  %.068.i = phi ptr [ %.0.i, %_ZN5clang33IgnoreImplicitAsWrittenSingleStepEPNS_4ExprE.exit ], [ %0, %1 ]
  %2 = load i8, ptr %.068.i, align 8
  switch i8 %2, label %_ZN5clang15IgnoreExprNodesIJRFPNS_4ExprES2_EEEES2_S2_DpOT_.exit [
    i8 79, label %3
    i8 116, label %13
    i8 61, label %_ZN5clang29IgnoreImplicitCastsSingleStepEPNS_4ExprE.exit.i.i
    i8 60, label %_ZN5clang29IgnoreImplicitCastsSingleStepEPNS_4ExprE.exit.i.i
    i8 48, label %._crit_edge.i.i
  ]

3:                                                ; preds = %.lr.ph.i
  %4 = tail call noundef ptr @_ZN5clang8CastExpr19getSubExprAsWrittenEv(ptr noundef nonnull align 8 dereferenceable(24) %.068.i)
  br label %_ZN5clang33IgnoreImplicitAsWrittenSingleStepEPNS_4ExprE.exit

._crit_edge.i.i:                                  ; preds = %.lr.ph.i
  %.phi.trans.insert.i.i = getelementptr inbounds nuw i8, ptr %.068.i, i64 16
  %.0.copyload.i.i.i.i.i.i.i.i.i.pre.i.i = load i64, ptr %.phi.trans.insert.i.i, align 8
  %5 = and i64 %.0.copyload.i.i.i.i.i.i.i.i.i.pre.i.i, 4
  %6 = icmp eq i64 %5, 0
  %7 = and i64 %.0.copyload.i.i.i.i.i.i.i.i.i.pre.i.i, -8
  %8 = inttoptr i64 %7 to ptr
  br i1 %6, label %_ZN5clang33IgnoreImplicitAsWrittenSingleStepEPNS_4ExprE.exit, label %11

_ZN5clang29IgnoreImplicitCastsSingleStepEPNS_4ExprE.exit.i.i: ; preds = %.lr.ph.i, %.lr.ph.i
  %9 = getelementptr inbounds nuw i8, ptr %.068.i, i64 16
  %10 = load ptr, ptr %9, align 8
  br label %_ZN5clang33IgnoreImplicitAsWrittenSingleStepEPNS_4ExprE.exit

11:                                               ; preds = %._crit_edge.i.i
  %12 = getelementptr inbounds nuw i8, ptr %8, i64 40
  br label %_ZNK5clang24MaterializeTemporaryExpr10getSubExprEv.exit.sink.split.i.i

13:                                               ; preds = %.lr.ph.i
  %14 = getelementptr inbounds nuw i8, ptr %.068.i, i64 24
  br label %_ZNK5clang24MaterializeTemporaryExpr10getSubExprEv.exit.sink.split.i.i

_ZNK5clang24MaterializeTemporaryExpr10getSubExprEv.exit.sink.split.i.i: ; preds = %13, %11
  %.sink.i.i = phi ptr [ %12, %11 ], [ %14, %13 ]
  %15 = load ptr, ptr %.sink.i.i, align 8
  br label %_ZN5clang33IgnoreImplicitAsWrittenSingleStepEPNS_4ExprE.exit

_ZN5clang33IgnoreImplicitAsWrittenSingleStepEPNS_4ExprE.exit: ; preds = %3, %._crit_edge.i.i, %_ZN5clang29IgnoreImplicitCastsSingleStepEPNS_4ExprE.exit.i.i, %_ZNK5clang24MaterializeTemporaryExpr10getSubExprEv.exit.sink.split.i.i
  %.0.i = phi ptr [ %4, %3 ], [ %8, %._crit_edge.i.i ], [ %10, %_ZN5clang29IgnoreImplicitCastsSingleStepEPNS_4ExprE.exit.i.i ], [ %15, %_ZNK5clang24MaterializeTemporaryExpr10getSubExprEv.exit.sink.split.i.i ]
  %.not.i = icmp eq ptr %.0.i, %.068.i
  br i1 %.not.i, label %_ZN5clang15IgnoreExprNodesIJRFPNS_4ExprES2_EEEES2_S2_DpOT_.exit, label %.lr.ph.i, !llvm.loop !7

_ZN5clang15IgnoreExprNodesIJRFPNS_4ExprES2_EEEES2_S2_DpOT_.exit: ; preds = %.lr.ph.i, %_ZN5clang33IgnoreImplicitAsWrittenSingleStepEPNS_4ExprE.exit
  %.0.i3 = phi ptr [ %.0.i, %_ZN5clang33IgnoreImplicitAsWrittenSingleStepEPNS_4ExprE.exit ], [ %.068.i, %.lr.ph.i ]
  ret ptr %.0.i3
}